; Function Attrs: mustprogress nounwind uwtable
define void @_ZN7glslang14TParseVersions13requireVulkanERKNS_10TSourceLocEPKc(ptr noundef nonnull align 8 dereferenceable(224) %0, ptr noundef nonnull align 8 dereferenceable(24) %1, ptr noundef %2) unnamed_addr #0 align 2 {
  %4 = getelementptr inbounds i8, ptr %0, i64 40
  %5 = load i32, ptr %4, align 8
  %6 = icmp eq i32 %5, 0
  br i1 %6, label %7, label %11

7:                                                ; preds = %3
  %8 = load ptr, ptr %0, align 8
  %9 = getelementptr inbounds i8, ptr %8, i64 344
  %10 = load ptr, ptr %9, align 8
  tail call void (ptr, ptr, ptr, ptr, ptr, ...) %10(ptr noundef nonnull align 8 dereferenceable(224) %0, ptr noundef nonnull align 8 dereferenceable(24) %1, ptr noundef nonnull @.str.268, ptr noundef %2, ptr noundef nonnull @.str.240) #15
  br label %11

11:                                               ; preds = %7, %3
  ret void
}